; Function Attrs: mustprogress nounwind uwtable
define void @_ZN3nix3PidD2Ev(ptr noundef nonnull align 4 dereferenceable(12) %0) unnamed_addr #5 align 2 personality ptr @__gxx_personality_v0 {
  %2 = load i32, ptr %0, align 4
  %.not = icmp eq i32 %2, -1
  br i1 %.not, label %5, label %3

3:                                                ; preds = %1
  %4 = invoke noundef i32 @_ZN3nix3Pid4killEv(ptr noundef nonnull align 4 dereferenceable(12) %0)
          to label %5 unwind label %6

5:                                                ; preds = %3, %1
  ret void

6:                                                ; preds = %3
  %7 = landingpad { ptr, i32 }
          catch ptr null
  %8 = extractvalue { ptr, i32 } %7, 0
  tail call void @__clang_call_terminate(ptr %8) #33
  unreachable
}